; Function Attrs: nofree norecurse nosync nounwind memory(argmem: readwrite) uwtable
define internal void @pred8x8_mad_cow_dc_0l0_9(ptr noundef captures(none) %0, i64 noundef %1) #3 {
  %3 = ashr i64 %1, 1
  %invariant.gep.i = getelementptr i8, ptr %0, i64 -2
  br label %4

4:                                                ; preds = %4, %2
  %indvars.iv.i = phi i64 [ 0, %2 ], [ %indvars.iv.next.i, %4 ]
  %.03338.i = phi i32 [ 0, %2 ], [ %8, %4 ]
  %.03437.i = phi i32 [ 0, %2 ], [ %13, %4 ]
  %5 = mul nsw i64 %indvars.iv.i, %3
  %gep.i = getelementptr i16, ptr %invariant.gep.i, i64 %5
  %6 = load i16, ptr %gep.i, align 2, !tbaa !9
  %7 = zext i16 %6 to i32
  %8 = add nuw nsw i32 %.03338.i, %7
  %9 = add nuw nsw i64 %indvars.iv.i, 4
  %10 = mul nsw i64 %9, %3
  %gep36.i = getelementptr i16, ptr %invariant.gep.i, i64 %10
  %11 = load i16, ptr %gep36.i, align 2, !tbaa !9
  %12 = zext i16 %11 to i32
  %13 = add nuw nsw i32 %.03437.i, %12
  %indvars.iv.next.i = add nuw nsw i64 %indvars.iv.i, 1
  %exitcond.not.i = icmp eq i64 %indvars.iv.next.i, 4
  br i1 %exitcond.not.i, label %14, label %4, !llvm.loop !29

14:                                               ; preds = %4
  %15 = add nuw nsw i32 %8, 2
  %16 = lshr i32 %15, 2
  %17 = zext nneg i32 %16 to i64
  %18 = mul i64 %17, 281479271743489
  br label %19

19:                                               ; preds = %19, %14
  %indvars.iv44.i = phi i64 [ 0, %14 ], [ %indvars.iv.next45.i, %19 ]
  %20 = mul nsw i64 %indvars.iv44.i, %3
  %21 = getelementptr inbounds i16, ptr %0, i64 %20
  store i64 %18, ptr %21, align 8, !tbaa !8
  %22 = getelementptr inbounds nuw i8, ptr %21, i64 8
  store i64 %18, ptr %22, align 8, !tbaa !8
  %indvars.iv.next45.i = add nuw nsw i64 %indvars.iv44.i, 1
  %exitcond47.not.i = icmp eq i64 %indvars.iv.next45.i, 4
  br i1 %exitcond47.not.i, label %.preheader.preheader.i, label %19, !llvm.loop !30

.preheader.preheader.i:                           ; preds = %19
  %23 = add nuw nsw i32 %13, 2
  %24 = lshr i32 %23, 2
  %25 = zext nneg i32 %24 to i64
  %26 = mul i64 %25, 281479271743489
  br label %.preheader.i

.preheader.i:                                     ; preds = %.preheader.i, %.preheader.preheader.i
  %indvars.iv48.i = phi i64 [ 4, %.preheader.preheader.i ], [ %indvars.iv.next49.i, %.preheader.i ]
  %27 = mul nsw i64 %indvars.iv48.i, %3
  %28 = getelementptr inbounds i16, ptr %0, i64 %27
  store i64 %26, ptr %28, align 8, !tbaa !8
  %29 = getelementptr inbounds nuw i8, ptr %28, i64 8
  store i64 %26, ptr %29, align 8, !tbaa !8
  %indvars.iv.next49.i = add nuw nsw i64 %indvars.iv48.i, 1
  %exitcond51.not.i = icmp eq i64 %indvars.iv.next49.i, 8
  br i1 %exitcond51.not.i, label %pred8x8_left_dc_9_c.exit, label %.preheader.i, !llvm.loop !31

pred8x8_left_dc_9_c.exit:                         ; preds = %.preheader.i
  %30 = lshr i64 %1, 1
  %31 = trunc i64 %30 to i32
  store i64 72058693566333184, ptr %0, align 8, !tbaa !8
  %sext.i = shl i64 %30, 32
  %32 = ashr exact i64 %sext.i, 31
  %33 = getelementptr inbounds i8, ptr %0, i64 %32
  store i64 72058693566333184, ptr %33, align 8, !tbaa !8
  %34 = shl nsw i32 %31, 1
  %35 = sext i32 %34 to i64
  %36 = getelementptr inbounds i16, ptr %0, i64 %35
  store i64 72058693566333184, ptr %36, align 8, !tbaa !8
  %sext9.i = mul i64 %30, 12884901888
  %37 = ashr exact i64 %sext9.i, 31
  %38 = getelementptr inbounds i8, ptr %0, i64 %37
  store i64 72058693566333184, ptr %38, align 8, !tbaa !8
  %39 = getelementptr inbounds nuw i8, ptr %0, i64 8
  store i64 72058693566333184, ptr %39, align 8, !tbaa !8
  %40 = getelementptr inbounds i8, ptr %39, i64 %32
  store i64 72058693566333184, ptr %40, align 8, !tbaa !8
  %41 = getelementptr inbounds i16, ptr %39, i64 %35
  store i64 72058693566333184, ptr %41, align 8, !tbaa !8
  %42 = getelementptr inbounds i8, ptr %39, i64 %37
  store i64 72058693566333184, ptr %42, align 8, !tbaa !8
  ret void
}